ccollections
OrderedDict
p0
((lp1
(lp2
S'ActivateCarrierFrequency'
p3
a(lp4
aa(lp5
S'AddLchTableEntry'
p6
a(lp7
S'CYCLE_TABLE_SET_INDEX'
p8
aS'HARQ_NUMBER'
p9
aS'NUM_ENTRIES'
p10
aS'>LCH_ID'
p11
aS'>SS'
p12
aS'>NUM_SDU'
p13
aS'LENGTH'
p14
aaa(lp15
S'Adjusthsmc'
p16
a(lp17
S'MEAN_SIR_BIAS_OFF_RANK_1'
p18
aS'MEAN_SIR_BIAS_OFF_RANK_2'
p19
aS'SIR_FORGETTING_FACTOR_RANK1'
p20
aS'SIR_FORGETTING_FACTOR_RANK2'
p21
aS'ESTIMATION_CHANNEL_AVERAGE_LENGT'
p22
aS'EQ_TAPS_AVERAGE_LENGTH'
p23
aS'ZERO_MODEL_H11'
p24
aS'ZERO_MODEL_H12'
p25
aS'ZERO_MODEL_H21'
p26
aS'ZERO_MODEL_H22'
p27
aS'EC_OVER_IOR_OCNS'
p28
aaa(lp29
S'CMAC_CONFIG_RX_CCTRCH_REQ'
p30
a(lp31
S'ACTIVATION_CFN'
p32
aS'DL_CCTRCH_Type'
p33
aS'NUM_LOGICAL_CHANS'
p34
aS'> RX_LOGICAL_CHANNEL_TYPE'
p35
aS'> CN_DOMAIN_ID'
p36
aS'> RADIO_BEARER_FOR-RX_RLC'
p37
aS'> TRCH_ID'
p38
aS'> CT_MUX_OR_MBMS_ID'
p39
aS'NUM_DL_TRCH'
p40
aS'> TRCH_ID'
p41
aS'> TTI_LENGTH'
p42
aS'> NUM_TFS'
p43
aS'> > TB_SIZE'
p44
aS'> > TB_PER_TTI'
p45
aaa(lp46
S'CRLC_CONFIG_TX_TM_ESTABLISH_REQ'
p47
a(lp48
S'EXTENDED_RADIO_BEARER_ID'
p49
aS'SEGMENTATION'
p50
aS'TX_RLC_DISCARD_MODE'
p51
aS'TIMER_DISCARD'
p52
aaa(lp53
S'DchCpichSir'
p54
a(lp55
S'FORGETTING_FACTOR'
p56
aS'FILTER_LENGTH'
p57
aaa(lp58
S'DeleteCommonDrx'
p59
a(lp60
S'TIMING_TYPE'
p61
aS'COMMAND_TIME'
p62
aaa(lp63
S'SetGSMMeasurement'
p64
a(lp65
S'MEASUREMENT_REPORTING_PERIOD'
p66
aS'NUM_INTER_RAT_CELLS'
p67
aS'> CELL_MEAS_ID'
p68
aS'> ARFCN'
p69
aS'> BAND_INDICATOR'
p70
aS'> BSIC'
p71
aS'> BSIC_VERIFY'
p72
aaa(lp73
S'SetRxBrpReportPeriod'
p74
a(lp75
S'MEASUREMENT_REPORTING_PERIOD'
p76
aaa(lp77
S'SetSecRFFreqs'
p78
a(lp79
S'DL Centre Frequency'
p80
aS'UL Centre Frequency'
p81
aaa(lp82
S'SetSIRCQIMapping'
p83
a(lp84
S'CQI_MAPPING_TABLE'
p85
aS'MAPPING'
p86
aaa(lp87
S'STRT'
p88
a(lp89
aa(lp90
S'ABOT'
p91
a(lp92
S'REBOOT_ON_ERROR'
p93
aS'REBOOT_ON_MCI_DISCONNECT'
p94
aS'MCI_TICK_INDICATION'
p95
aaa(lp96
S'AddDDI'
p97
a(lp98
S'CYCLE_TABLE_SET_INDEX'
p99
aS'DDI_ID'
p100
aS'DATA_PORT'
p101
aS'PDU_SIZE'
p102
aaa(lp103
S'AddDDITableEntry'
p104
a(lp105
S'CYCLE_TABLE_SET_INDEX'
p106
aS'HARQ_NUMBER'
p107
aS'NUM_DDI'
p108
aS'> DDI_ID'
p109
aS'> N_FIELD'
p110
aaa(lp111
S'AddDLPhCH'
p112
a(lp113
S'DL PhCH index'
p114
aS'DL PhCH leg index'
p115
aS'DL PhCH On/Off'
p116
aS'DL PCP Slot format index'
p117
aS'Transmit Diversity Mode'
p118
aS'DL PhCH Scrambling code'
p119
aS'DL PhCH Spreading code index'
p120
aS'CPICH Scrambling code'
p121
aS'CPICH Spreading code index'
p122
aS'Td Over Null'
p123
aS'Alternate Scrambling Code Request'
p124
aS'TPC Combination Index'
p125
aS'Phase Reference Type'
p126
aS'Multicode Index'
p127
aS'Is channel a PDSCH'
p128
aaa(lp129
S'AddDLTFC'
p130
a(lp131
S'DL_TFC_ROW_INDEX'
p132
aS'NUM_TF_IN_DL_TFC'
p133
aS'SF'
p134
aS'SPREADING_CODE_INDEX'
p135
aS'RESERVED'
p136
aS'TFCI'
p137
aS'DL_TF_INDEX_LIST'
p138
aS'NUM_MULTICODES'
p139
aaa(lp140
S'AddEDCHCell'
p141
a(lp142
S'FURTHER_COMMANDS'
p143
aS'TIMING_TYPE'
p144
aS'COMMAND_TIME'
p145
aS'DL_SCRAM_CODE'
p146
aS'E-HICH_CHANNELISATION_CODE'
p147
aS'E-HICH_SIGNATURE'
p148
aS'E-RGCH_CONFIG'
p149
aS'E-RGCH_SIGNATURE'
p150
aS'RG_COMBINATION_INDEX'
p151
aS'E-RGCH_STEPSIZE'
p152
aaa(lp153
S'AddEmulatedFDDCell'
p154
a(lp155
S'UARFCN'
p156
aS'START_TIME'
p157
aS'START_RSSI'
p158
aS'ACTION_AT_END'
p159
aS'RAMP_TIME'
p160
aS'END_RSSI'
p161
aaa(lp162
S'AddEmulatedFDDFrequency'
p163
a(lp164
S'UARFCN'
p165
aS'START_TIME'
p166
aS'START_RSSI'
p167
aS'ACTION_AT_END'
p168
aS'RAMP_TIME'
p169
aS'END_RSSI'
p170
aaa(lp171
S'AddEmulatedGSMCell'
p172
a(lp173
S'BSIC'
p174
aS'ARFCN'
p175
aS'BAND_INDICATOR'
p176
aS'GSM_TIMING'
p177
aS'START_TIME'
p178
aS'START_RXLEV'
p179
aS'ACTION_AT_END'
p180
aS'RAMP_TIME'
p181
aS'END_RXLEV'
p182
aaa(lp183
S'AddEtfciCycleTableEntry'
p184
a(lp185
S'CYCLE_TABLE_SET_INDEX'
p186
aS'E-TFCI_VALUE'
p187
aaa(lp188
S'AddLch'
p189
a(lp190
S'CYCLE_TABLE_SET_INDEX'
p191
aS'LCH_ID'
p192
aS'DATA_PORT'
p193
aaa(lp194
S'AddLeg'
p195
a(lp196
S'DL_PHCH_INDEX'
p197
aS'LEG_INDEX'
p198
aS'DL_SCRAM_CODE'
p199
aS'SPREADING_CODE_INDEX'
p200
aS'DL_SCRAM_CODE'
p201
aS'SPREADING_CODE_INDEX'
p202
aS'TD_OVER_NULL (or TD)'
p203
aS'TIMING_TYPE'
p204
aS'COMMAND_TIME'
p205
aS'TX_DIVERSITY_MODE'
p206
aS'ALTERNATE_SCRAM_CODE_REQ'
p207
aS'TPC_COMBINATION_INDEX'
p208
aS'PHASE_REF'
p209
aS'CLOSED_LOOP_TIMING_MODE'
p210
aS'DL_PCP_SLOT_FORMAT_INDEX'
p211
aaa(lp212
S'ADDR'
p213
a(lp214
S'RADIO CONTEXT'
p215
aS'CHASSIS'
p216
aS'SLAVE RADIO CARD'
p217
aS'INTERFACE MODE'
p218
aaa(lp219
S'AddRsnCycleTableEntry'
p220
a(lp221
S'CYCLE_TABLE_SET_INDEX'
p222
aS'RSN_VALUE'
p223
aaa(lp224
S'AddSecCellInDetectedSet'
p225
a(lp226
S'Secondary Carrier  Cell ID'
p227
aS'Primary Carrier Cell ID'
p228
aS'CPICH_POWER_OFFSET_FOR_CELL_O'
p229
aS'Delta CPICH Power Offset'
p230
aaa(lp231
S'AddSigCycleTableEntry'
p232
a(lp233
S'CYCLE_TABLE_SET_INDEX'
p234
aS'HAPPY_BIT'
p235
aS'UL_SCHEDULE_INFO_ENABLE'
p236
aS'UL_SCHEDULE_HI_ID'
p237
aS'UL_SCHEDULE_BO_FRACTION_STATUS'
p238
aS'UL_SCHEDULING_BO_TOTAL_STATUS'
p239
aS'ESTIMATE_POWER_RATIO'
p240
aaa(lp241
S'AddTF'
p242
a(lp243
S'DIRECTION'
p244
aS'TF_ROW_INDEX'
p245
aS'TB_SIZE'
p246
aS'NUM_TB'
p247
aaa(lp248
S'AddTGPS'
p249
a(lp250
S'TGPSI'
p251
aS'TGMP'
p252
aS'TGPRC'
p253
aS'TGSN'
p254
aS'TGL1'
p255
aS'TGL2'
p256
aS'TGD'
p257
aS'TGPL1'
p258
aS'TGPL2'
p259
aS'RPP'
p260
aS'ITP'
p261
aS'UL_DL_MODE'
p262
aS'UL_CM_METHOD'
p263
aS'DL_CM_METHOD'
p264
aS'DL_FRAME_TYPE'
p265
aS'DELTA_SIR_1'
p266
aS'DELTA_SIR_AFTER_1'
p267
aS'DELTA_SIR_2'
p268
aS'DELTA_SIR_AFTER_2'
p269
aS'N_IDENTIFY_ABORT'
p270
aS'T_RECONFIRM'
p271
aaa(lp272
S'AddTrCH'
p273
a(lp274
S'DIRECTION'
p275
aS'TRCH_ROW_INDEX'
p276
aS'TF_START_INDEX'
p277
aS'NUM_TF_IN_TRCH'
p278
aS'CRC_LENGTH'
p279
aS'CODING_TYPE'
p280
aS'RM_ATTRIB'
p281
aS'FRAMES_PER_TTI'
p282
aS'TRCH_ID'
p283
aS'TRBLK_BIT_OFFSET'
p284
aaa(lp285
S'AddULPhCH'
p286
a(lp287
S'UL_PHCH_INDEX'
p288
aS'UL_PCP_SLOT_FORMAT_INDEX'
p289
aS'SCRAM_CODE_LENGTH'
p290
aS'UL_SCRAM_CODE'
p291
aS'DL_PCCPCH_OFFSET'
p292
aS'UL_PC_PREAMBLE_TX'
p293
aS'PHCH_ON_OFF'
p294
aS'CELL_SCRAMBLING_CODE'
p295
aaa(lp296
S'AddULTFC'
p297
a(lp298
S'UL_TFC_ROW_INDEX'
p299
aS'NUM_TF_IN_UL_TFC'
p300
aS'TFCI'
p301
aS'CTRL_GAIN'
p302
aS'DATA_GAIN'
p303
aS'UL_TF_INDEX_LIST'
p304
aS'PREAMBLE_MESSAGE_POWER_OFFSET'
p305
aS'REFERENCE_TFC_INDEX'
p306
aaa(lp307
S'CCSR_RAB_ESTABLISH_IND'
p308
a(lp309
S'BITMASK FOR NAS SYNC IND'
p310
aS'RAB_ID'
p311
aS'NAS_SYNC_INDICATOR'
p312
aaa(lp313
S'CCSR_RAB_RELEASE_IND'
p314
a(lp315
S'RAB_ID'
p316
aaa(lp317
S'CCUCSR_SET_ROUTING_REQ'
p318
a(lp319
S'RAB_ID'
p320
aS'TARGET_ENTITY'
p321
aaa(lp322
S'CESC'
p323
a(lp324
S'ERROR_STATUS_CONDITION_ID'
p325
aaa(lp326
S'CfgCommonEdchMacParams'
p327
a(lp328
S'RACH Test Mode'
p329
aS'MAX_RSRC_ALLOC_CCCH'
p330
aS'MAX_COLLISION_RESOLUTION'
p331
aS'CONTINUATION_BACKOFF'
p332
aS'E-RNTI'
p333
aaa(lp334
S'CfgDEDLTDI'
p335
a(lp336
S'INSTANCE_NUMBER'
p337
aS'DATA_PORT'
p338
aS'TDI_MODE'
p339
aaa(lp340
S'CfgDEFFE'
p341
a(lp342
S'INSTANCE_NUMBER'
p343
aS'DATA_PORT'
p344
aS'NUM_FFE_BUFFERS'
p345
aS'BITS_TO_SKIP'
p346
aS'RESYNC'
p347
aaa(lp348
S'CfgDEFFEBuffer'
p349
a(lp350
S'INSTANCE_NUMBER'
p351
aS'BUFFER_ID'
p352
aS'BUFFER_INDEX'
p353
aS'BUFFER_VAL'
p354
aaa(lp355
S'CfgDEFFG'
p356
a(lp357
S'INSTANCE_NUMBER\\t'
p358
aS'DATA_PORT'
p359
aS'NUM_FFG_BUFFERS'
p360
aaa(lp361
S'CfgDEFFGBuffer'
p362
a(lp363
S'INSTANCE_NUMBER'
p364
aS'BUFFER_ID'
p365
aS'BUFFER_INDEX'
p366
aS'BUFFER_VAL'
p367
aaa(lp368
S'CfgDELoopback'
p369
a(lp370
S'INSTANCE_NUMBER'
p371
aS'UL DATA_PORT'
p372
aS'DL DATA_PORT'
p373
aaa(lp374
S'CfgDEPNE'
p375
a(lp376
S'INSTANCE_NUMBER'
p377
aS'DATA_PORT'
p378
aS'PN_OPTION'
p379
aS'PN_IS_FIXED_LENGTH'
p380
aS'BITS_TO_SKIP'
p381
aS'RESYNC_ON_SYNC_LOSS'
p382
aaa(lp383
S'CfgDEPNG'
p384
a(lp385
S'INSTANCE_NUMBER'
p386
aS'DATA_PORT'
p387
aS'PN_OPTION'
p388
aS'PN_IS_FIXED_LENGTH'
p389
aaa(lp390
S'CfgDEULTDI'
p391
a(lp392
S'INSTANCE_NUMBER'
p393
aS'DATA_PORT'
p394
aS'TDI_MODE'
p395
aaa(lp396
S'CfgDLCCTrCH'
p397
a(lp398
S'CCB'
p399
aS'IS_BCH'
p400
aS'TMI'
p401
aS'RESERVED'
p402
aS'DL_CCTRCH_INDEX'
p403
aS'TIMING_TYPE'
p404
aS'COMMAND_TIME'
p405
aS'DL_PHCH_INDEX'
p406
aS'DL_TFCI_MODE'
p407
aS'DL_TRCH_START_INDEX'
p408
aS'NUM_TRCH'
p409
aS'TRCH_POSITION'
p410
aS'DL_TFC_START_INDEX'
p411
aS'NUM_TFC'
p412
aS'TTI_TIMING_KNOWN'
p413
aS'NUM_DL_PHYS_CH'
p414
aS'DL_PHYS_CH_LIST'
p415
aS'DATA_PORT_LIST'
p416
aS'REPORT_SYNC_STATUS'
p417
aS'IN_SYNC_FRAMES_STARTUP'
p418
aS'OUT_OF_SYNC_FRAMES'
p419
aS'RESYNC_FRAMES'
p420
aaa(lp421
S'CfgDLDRXParams'
p422
a(lp423
S'CYCLE_LENGTH'
p424
aS'DRX_INACTIVITY_THRESHOLD'
p425
aS'GRANT_INACTIVITY_THRESHOLD'
p426
aS'DRX_GRANT_MONITORING'
p427
aaa(lp428
S'CfgDTXDRXTiming'
p429
a(lp430
S'DTX_DRX_OFFSET'
p431
aS'TIMING_TYPE'
p432
aS'COMMAND_TIME'
p433
aS'HSSCCH_ORDER'
p434
aaa(lp435
S'CfgEDCHTestMode'
p436
a(lp437
S'CYCLE_TABLE_SET_INDEX'
p438
aS'DATA_TEST_MODE'
p439
aS'E-TFCI_TABLE_INDEX'
p440
aS'TTI_TIME_INTERVAL'
p441
aS'> MAX_RETRANSMISSIONS'
p442
aS'>E-DCH_MAC-D_FLOW_POWER_OFFSET'
p443
aS'NUM_REFERENCE_E-TFCI'
p444
aS'> REFERENCE_E-TFCI'
p445
aS'> REFERENCE_E-TFCI_POWER_OFFSET'
p446
aaa(lp447
S'CfgFACHDRX'
p448
a(lp449
S'FACH_DRX_CONFIG_OPTION'
p450
aS'DL_PHCH_INDEX'
p451
aS'FRAMES_PER_TTI'
p452
aS'CTCH_ALLOCATION_PERIOD'
p453
aS'CBS_FRAME_OFFSET'
p454
aS'CBS_MESSAGE_SCHEDULE'
p455
aaa(lp456
S'CfgHarqDataPort'
p457
a(lp458
S'CYCLE_TABLE_SET_INDEX\\'
p459
aS'DATA_PORT'
p460
aaa(lp461
S'CfgHsdpaExtraHrnti'
p462
a(lp463
S'BCCH_SPECIFIC_H_RNTI_IS_PRESENT'
p464
aS'BCCH_SPECIFIC_H_RNTI'
p465
aS'H_RNTI_TYPE'
p466
aaa(lp467
S'CfgHsdschPich'
p468
a(lp469
S'TIMING_TYPE'
p470
aS'COMMAND_TIME'
p471
aS'DATA_PORT'
p472
aS'DL_SCRAM_CODE'
p473
aS'HS_PDSCH_CHANNELISATION_CODE'
p474
aS'NUMBER_OF_PCCH_TRANSMISSION'
p475
aS'NUMBER_OF_TRANSPORT_BLOCK_SIZE_LIS'
p476
aS'>TRANSPORT_BLOCK_SIZE_INDEX'
p477
aaa(lp478
S'CfgHSSCCHDP'
p479
a(lp480
S'DATA_PORT'
p481
aaa(lp482
S'CfgHsScchLess'
p483
a(lp484
S'SPREADING_CODE_INDEX'
p485
aS'NUM_TRANSPORT_FORMATS'
p486
aS'>TB_SIZE_INDEX'
p487
aS'>NUM_SPREAD_CODES'
p488
aaa(lp489
S'CfgMICH'
p490
a(lp491
S'DL_PHCH_INDEX'
p492
aS'DL_PHCH_INDEX'
p493
aS'NUM_NI_PER_FRAME'
p494
aS'NI_NUMBER'
p495
aS'TIMING_TYPE'
p496
aS'COMMAND_TIME'
p497
aS'MICH_CPICH_POWER_RATIO'
p498
aS'MOD_PERIOD_COEFF'
p499
aS'REP_PERIOD_COEFF'
p500
aaa(lp501
S'CfgPICH'
p502
a(lp503
S'DL_PHCH_INDEX'
p504
aS'DL_PHCH_INDEX'
p505
aS'NUM_PI_PER_FRAME'
p506
aS'PI_NUMBER'
p507
aS'TIMING_TYPE'
p508
aS'COMMAND_TIME'
p509
aS'PICH_CPICH_POWER_RATIO'
p510
aS'DRX_CYCLE_LENGTH'
p511
aS'The DRX cycle length (frames) is given by 2'
p512
aS'PICH_TRIGGER_CHANNELS'
p513
aaa(lp514
S'CfgPRACH'
p515
a(lp516
S'UL_PHCH_INDEX'
p517
aS'DL_PHCH_INDEX'
p518
aS'LEG_INDEX'
p519
aS'PREAMBLE_SCRAM_CODE'
p520
aS'AICH_TIMING'
p521
aS'POWER_RAMP_STEP_SIZE'
p522
aS'PREAMBLE_TX_LIMIT'
p523
aS'PREAMBLE_INIT_POWER'
p524
aS'DL_SCRAM_CODE'
p525
aS'SPREADING_CODE_INDEX'
p526
aS'AICH_REL_TX_POWER'
p527
aS'PREAMBLE_MESSAGE_POWER_OFFSET'
p528
aS'NUM_ASC'
p529
aS'AVAILABLE_ASC_SIG_LIST'
p530
aS'SUB_CHANNELS_PER_ASC_LIST'
p531
aS'AVAILABLE_ASC_SUB-CH_GROUP_LIST'
p532
aS'SUB_CHANNEL_GROUP_LIST'
p533
aS'E_AI_INDICATION'
p534
aS'P_PE_POWER_OFFSET'
p535
aaa(lp536
S'CfgPRACHPreamblePower'
p537
a(lp538
S'PREAMBLE_INIT_POWER'
p539
aaa(lp540
S'CfgULCCTrCH'
p541
a(lp542
S'CCB'
p543
aS'IS_RACH'
p544
aS'UL_TFCI_MODE'
p545
aS'NUM_TFC_CYCLE_TABLE_ENTRIES'
p546
aS'TMI'
p547
aS'RESERVED'
p548
aS'UL_CCTRCH_INDEX'
p549
aS'TIMING_TYPE'
p550
aS'COMMAND_TIME'
p551
aS'UL_PHCH_INDEX'
p552
aS'UL_TRCH_START_INDEX'
p553
aS'NUM_TRCH'
p554
aS'UL_TFC_START_INDEX'
p555
aS'NUM_TFC'
p556
aS'REFERENCE_TFC_INDEX'
p557
aS'PUNCTURE_LIMIT'
p558
aS'ALLOW_SF_COMBO'
p559
aS'DATA_PORT_LIST'
p560
aaa(lp561
S'CfgULDTXParams'
p562
a(lp563
S'UL_PCP_SLOT_FORMAT_INDEX'
p564
aS'CYCLE_LENGTH_1'
p565
aS'CYCLE_LENGTH_2'
p566
aS'BURST_LENGTH_1'
p567
aS'BURST_LENGTH_2'
p568
aS'CYCLE_2_INACTIVITY_THRESHOLD'
p569
aS'LONG_PREAMBLE_LENGTH'
p570
aS'CQI_DTX_TIMER'
p571
aaa(lp572
S'CfgULTFCCycleTable'
p573
a(lp574
S'TFC_CYCLE_ROW_INDEX'
p575
aS'TFC_ROW_INDEX'
p576
aS'UL_CCTRCH_INDEX'
p577
aaa(lp578
S'CHOW'
p579
a(lp580
aa(lp581
S'ClearStats'
p582
a(lp583
S'CCB'
p584
aS'SERVICE'
p585
aS'If this parameter is used CCB is not required.'
p586
aaa(lp587
S'CMAC_CONFIG_DRX_PARAMS_REQ'
p588
a(lp589
S'GRANT_INACTIVITY_THRESHOLD'
p590
aS'DRX_GRANT_MONITORING'
p591
aaa(lp592
S'CMAC_CONFIG_DTX_PARAMS_REQ'
p593
a(lp594
S'MAC_DTX_CYCLE'
p595
aS'MAC_INACTIVITY_THRESHOLD'
p596
aS'CYCLE_2_INACTIVITY_THRESHOLD'
p597
aS'DEFAULT_SG_IN_DTX_CYCLE_2'
p598
aaa(lp599
S'CMAC_CONFIG_DTX_TIMING_REQ'
p600
a(lp601
S'ACTIVATION_CFN'
p602
aS'DTX_DRX_OFFSET'
p603
aaa(lp604
S'CMAC_CONFIG_E_DCH_REQ'
p605
a(lp606
S'ACTIVATION_CFN'
p607
aS'SECONDARY_E-RNTI_CONFIG'
p608
aS'TTI_INTERVAL'
p609
aS'MAC_ES/E_RESET_IND'
p610
aS'HAPPY_BIT_DELAY'
p611
aS'ETFCI _TABLE_INDEX'
p612
aS'E-DPDCH_MAX_CHAN_CODE'
p613
aS'E-DPDCH_PUNCTURING_LIMIT'
p614
aS'MIN_SET_E-TFCI'
p615
aS'NUM_REF_E-TFCI'
p616
aS'> REFERENCE_E-TFCI'
p617
aS'> E-DPDCH_E-TFCI_REF_POWER_OFFSET'
p618
aS'HARQ_ALLOCATION'
p619
aS'SCHEDULE_INFO_PERIOD_NOGRANT'
p620
aS'SCHEDULE_INFO_PERIOD_GRANT'
p621
aS'INIT_SERVING_GRANT'
p622
aS'GRANT_SELECT'
p623
aS'2_INDEX_STEP_THRESHOLD'
p624
aS'3_INDEX_STEP_THRESHOLD'
p625
aS'POWER_OFFSET_SCHEDULING_INFO'
p626
aS'NUM_LOGICAL_CHANNELS'
p627
aS'> RADIO_BEARER'
p628
aS'> INCLUDE_IN_REPORT'
p629
aS'> LOGICAL_CHAN_PRIORITY'
p630
aS'> DDI_INDEX'
p631
aS'> MAC-D_FLOW_ID'
p632
aS'> NUM_RLC_PDU_SIZES'
p633
aS'>> RLC_PDU_SIZE'
p634
aS'NUM_MAC-D_FLOWS'
p635
aS'> MAC-D_FLOW_ID'
p636
aS'> MAC-D_FLOW_POWER_OFFSET'
p637
aS'> MAC-D_FLOW_MAX_RETRANSMISSION'
p638
aS'> MAC-D_FLOW_MUX_LIST'
p639
aS'> TRANSMISSION_GRANT_TYPE'
p640
aS'> NON-SCHEDULED_MAC-E_PDU_SIZE'
p641
aS'> NON-SCHEDULED_HARQ_ALLOCATION'
p642
aS'E-TFCI boost'
p643
aS'\xef\x81\x84T2TP'
p644
aS'SG_TABLE_INDEX'
p645
aS'UL_MAC_HEADER_TYPE'
p646
aS'IS_COMMON_EDCH'
p647
aS'MAX_RSRC_ALLOC_CCCH'
p648
aS'MAX_COLLISION_RESOLUTION'
p649
aS'CONTINUATION_BACKOFF'
p650
aS'E-RNTI'
p651
aS'EDPDCH_POWER_ALGO'
p652
aaa(lp653
S'CMAC_CONFIG_RACH_REQ'
p654
a(lp655
S'ACTIVATION_CFN'
p656
aS'Mmax'
p657
aS'NB01min'
p658
aS'NB01max'
p659
aS'ASC_FLAG'
p660
aS'NumASC'
p661
aS'Pi'
p662
aS'\xef\x80\xad(N \xef\x80\xad1)'
p663
aaa(lp664
S'CMAC_CONFIG_RX_ENH_HS_DSCH_REQ'
p665
a(lp666
S'ACTIVATION_CFN'
p667
aS'NUM_DL_LOGICAL_CHANS'
p668
aS'>LOGICAL_CHAN_TYPE'
p669
aS'>RADIO_BEARER_RLC_ENTITY'
p670
aS'>MACEHS_QUEUE_ID'
p671
aS'>LOGICAL_CHANNEL_ID'
p672
aS'NUM_MACEHS_QUEUES'
p673
aS'>MACEHS_QUEUE_ID'
p674
aS'>T1_RELEASE_TIMER'
p675
aS'>MACEHS_WIN_SIZE'
p676
aS'TMI_MACEHS_ENABLE'
p677
aS'TMI_MACD_ENABLE'
p678
aS'RRC_STATE'
p679
aS'TSN_EXTN_FIELD'
p680
aaa(lp681
S'CMAC_CONFIG_RX_HS_DSCH_REQ'
p682
a(lp683
S'ACTIVATION_CFN'
p684
aS'NUM_DL_LOGICAL_CHANS'
p685
aS'>LOGICAL_CHAN_TYPE'
p686
aS'>RADIO_BEARER_RLC_ENTITY'
p687
aS'>MACD_FLOW_ID'
p688
aS'>CT_MUX'
p689
aS'NUM_MACHS_QUEUES'
p690
aS'>MACHS_QUEUE_ID'
p691
aS'>MACD_FLOW_ID'
p692
aS'>T1_RELEASE_TIMER'
p693
aS'>MACHS_WIN_SIZE'
p694
aS'>NUM_MACD_PDU_SIZES'
p695
aS'>>MACD_PDU_SIZE'
p696
aS'>>MACD_PDU_SIZE_INDEX'
p697
aaa(lp698
S'CMAC_CONFIG_SEC_E_DCH_REQ'
p699
a(lp700
S'ACTIVATION_CFN'
p701
aS'MAC_I/IS_RESET_IND'
p702
aS'MIN_SET_E-TFCI'
p703
aS'HARQ_ALLOCATION'
p704
aS'GRANT_SELECT'
p705
aaa(lp706
S'CMAC_CONFIG_TX_CCTRCH_REQ'
p707
a(lp708
S'Name'
p709
aS'ACTIVATION_CFN'
p710
aS'Name'
p711
aS'UL_CCTRCH_TYPE'
p712
aS'NUM_LOGICAL_CHANS'
p713
aS'> RADIO_BEARER_FOR_TX_RLC'
p714
aS'> TRCH_ID'
p715
aS'> TX_LOGICAL_CHAN_TYPE'
p716
aS'> CN_DOMAIN_ID'
p717
aS'> PDU_TYPE'
p718
aS'> ONE_SHOT_MODE'
p719
aS'Name'
p720
aS'> TF_VALID'
p721
aS'> CT_MUX_SETTING'
p722
aS'> LOGICAL_CHANNEL_PRIORITY'
p723
aS'NUM_UL_TRCH'
p724
aS'> TRCH_ID'
p725
aS'> TTI_LENGTH'
p726
aS'> NUM_TF'
p727
aS'>> TRANSPORT_BLOCK _SIZE'
p728
aS'>> TBS_PER_TTI'
p729
aS'NUM_CTFC'
p730
aS'Name'
p731
aS'> TFCI'
p732
aS'> CTFC'
p733
aaa(lp734
S'CMAC_CONFIG_UE_REQ'
p735
a(lp736
S'ACTIVATION_CFN'
p737
aS'UE_ID_TYPE'
p738
aS'U_RNTI'
p739
aS'C_RNTI'
p740
aS'DSCH_RNTI'
p741
aaa(lp742
S'CMAC_E_DCH_CATEGORY_REQ'
p743
a(lp744
S'E-DCH_CATEGORY'
p745
aaa(lp746
S'CMAC_REMOVE_DTX_REQ'
p747
a(lp748
S'ACTIVATION_CFN'
p749
aaa(lp750
S'CMAC_REMOVE_E_DCH_REQ'
p751
a(lp752
S'ACTIVATION_CFN'
p753
aaa(lp754
S'CMAC_REMOVE_RX_CCTRCH_REQ'
p755
a(lp756
S'ACTIVATION_CFN'
p757
aS'UL_CCTrCH_TYPE'
p758
aaa(lp759
S'CMAC_REMOVE_RX_ENH_HS_DSCH_REQ'
p760
a(lp761
S'ACTIVATION_CFN'
p762
aaa(lp763
S'CMAC_REMOVE_RX_HS_DSCH_REQ'
p764
a(lp765
S'ACTIVATION_CFN'
p766
aaa(lp767
S'CMAC_REMOVE_SEC_E_DCH_REQ'
p768
a(lp769
S'ACTIVATION_CFN'
p770
aaa(lp771
S'CMAC_REMOVE_TX_CCTRCH_REQ'
p772
a(lp773
S'ACTIVATION_CFN'
p774
aS'UL_CCTrCH_TYPE'
p775
aaa(lp776
S'ConfigDLPC'
p777
a(lp778
S'UL_PHCH_INDEX'
p779
aS'DL_PHCH_INDEX'
p780
aS'DL_PC_MODE'
p781
aS'SIR_TARGET'
p782
aaa(lp783
S'ConfigHsdpaDataBer'
p784
a(lp785
S'BER_OFF_ON'
p786
aS'BER_MODE'
p787
aS'OVSF_OFFSET'
p788
aS'NUM_OVSF'
p789
aS'MODULATION'
p790
aS'BLOCK_SIZE'
p791
aS'CODED_RV/RV_S'
p792
aS'Int'
p793
aS'RV_R'
p794
aS'RV_B'
p795
aS'MIMO_PRECODING'
p796
aS'SEC_BLOCK_SIZE'
p797
aS'SEC_CODED_RV/SEC_RV_S'
p798
aS'SEC_RV_R'
p799
aS'SEC_RV_B'
p800
aaa(lp801
S'ConfigHsdpaEqualizer'
p802
a(lp803
S'NUM_EQ_TAPS'
p804
aS'CHAN_EST_SPAN_SLOTS'
p805
aS'CHAN_EST_RAY_THRESHOLD'
p806
aS'REGULARIZATION_MODE'
p807
aS'REGULARIZATION_VALUE'
p808
aaa(lp809
S'ConfigMacEhs'
p810
a(lp811
S'TMI_MACEHS_ENABLE'
p812
aS'TMI_MACD_ENABLE'
p813
aS'SEQUENCE_NUMBER_SIZE'
p814
aS'SEQUENCE_NUMBER_OFFSET'
p815
aS'TIMING_TYPE'
p816
aS'COMMAND_TIME'
p817
aS'NUM_DL_LOGICAL_CHANS'
p818
aS'> MACEHS_QUEUE_ID'
p819
aS'> LOGICAL_CHANNEL_ID'
p820
aS'> DATA_PORT'
p821
aS'NUM_MACEHS_QUEUES'
p822
aS'>MACEHS_QUEUE_ID'
p823
aS'>T1_RELEASE_TIMER'
p824
aS'>MACEHS_WIN_SIZE'
p825
aS'RRC_STATE'
p826
aS'SRB1_DCCH_LOGICAL_CH_ID'
p827
aS'U_RNTI'
p828
aS'TSN_EXTN_FIELD'
p829
aaa(lp830
S'ConfigMacHsQueues'
p831
a(lp832
S'TMI'
p833
aS'SEQUENCE_NUMBER_SIZE'
p834
aS'SEQUENCE_NUMBER_OFFSET'
p835
aS'TIMING_TYPE'
p836
aS'COMMAND_TIME'
p837
aS'NUM_MACHS_QUEUES'
p838
aS'QUEUE_ID'
p839
aS'MACD_FLOW_ID'
p840
aS'T1_RELEASE_TIMER'
p841
aS'MACHS_WIN_SIZE'
p842
aS'DATA_PORT'
p843
aS'NUM_MACD_PDU_SIZES'
p844
aS'MACD_PDU_SIZE'
p845
aS'MACD_PDU_SIZE_INDEX'
p846
aaa(lp847
S'ConfigPICH'
p848
a(lp849
S'FIX_PICH_POSITION'
p850
aaa(lp851
S'ConfigSchCancellation'
p852
a(lp853
S'SCH_CANCELLATION_MODE'
p854
aS'P-SCH_TO_CPICH_POWER'
p855
aS'S-SCH_TO_CPICH_POWER'
p856
aS'DIVERSITY_ENABLED'
p857
aaa(lp858
S'ConfigSCpichPower'
p859
a(lp860
S'TIMING_TYPE'
p861
aS'COMMAND_TIME'
p862
aaa(lp863
S'ConfigTXDiversity'
p864
a(lp865
S'HS-SCCH_TXD_MODE'
p866
aS'VERIFICATION_MODE'
p867
aS'FBI_ERROR_RATIO'
p868
aS'FBI_COMPUTATION_MODE'
p869
aS'FBI_COMPUTATION_COEFF'
p870
aS'FBI_NSC_COMP_COEFF'
p871
aaa(lp872
S'ConfigULPCLoop'
p873
a(lp874
S'DL_PHCH_INDEX'
p875
aS'UL_PHCH_INDEX'
p876
aS'PC_ALGORITHM'
p877
aS'STEP_SIZE'
p878
aS'MAX_POWER'
p879
aS'INITIAL_POWER'
p880
aS'DPCCH_POWER_OFFSET_FOR_SEC_UL'
p881
aaa(lp882
S'CPDCP_CONFIG_REQ'
p883
a(lp884
S'User Radio Bearer ID'
p885
aS'Lossless SRNS support'
p886
aS'Is PDCP header ABSENT'
p887
aS'Number of Algos'
p888
aS'Algo choice'
p889
aS'rfc2507 bitmask'
p890
aS'rfc2507 Max Period'
p891
aS'rfc2507 Max Time'
p892
aS'rfc2507 Max Header'
p893
aS'rfc2507 TCP Space'
p894
aS'rfc2507 Non-TCP Space'
p895
aS'Expect re-ordering'
p896
aS'RLC Mode'
p897
aS'In sequence delivery'
p898
aS'SN sync required'
p899
aS'Header compression re-init'
p900
aaa(lp901
S'CPDCP_RELEASE_REQ'
p902
a(lp903
S'USER_RADIO_BEARER'
p904
aaa(lp905
S'CRABM_RAB_ESTABLISH_IND'
p906
a(lp907
S'RAB_COUNT'
p908
aS'>NSAPI'
p909
aaa(lp910
S'CRABM_RAB_RELEASE_IND'
p911
a(lp912
S'RAB_COUNT'
p913
aS'NSAPI'
p914
aaa(lp915
S'CRLC_CONFIG_RAB_REQ'
p916
a(lp917
S'RAB_ID'
p918
aS'NUM_RAB_SUBFLOWS'
p919
aS'>ARRAY_USER_BEARER_IDS'
p920
aaa(lp921
S'CRLC_CONFIG_RELEASE_REQ'
p922
a(lp923
S'RADIO_BEARER_FOR_TX_RLC'
p924
aS'DIRECTION'
p925
aaa(lp926
S'CRLC_CONFIG_RX_AM_ESTABLISH_REQ'
p927
a(lp928
S'EXTENDED_RADIO_BEARER_ID'
p929
aS'RADIO_BEARER_FOR_TX_RLC'
p930
aS'STATUS_TRIGGERS'
p931
aS'TIMER_STATUS_PROHIBIT_TIMER'
p932
aS'TIMER_STATUS_PERIODIC'
p933
aS'TIMER_EPC'
p934
aS'RX_WINDOW_SIZE'
p935
aS'RE_ESTABLISHMENT_FLAG'
p936
aS'RX_HFN'
p937
aS'PDU_SIZE_TYPE'
p938
aS'LI_SIZE'
p939
aS'SPECIAL_HE_FIELD'
p940
aaa(lp941
S'CRLC_CONFIG_RX_TM_ESTABLISH_REQ'
p942
a(lp943
S'EXTENDED_RADIO_BEARER_ID'
p944
aS'REASSEMBLY_REQUIRED'
p945
aS'FILTER_FAILED_CRC'
p946
aS'RESULT'
p947
aS'LOGICAL_CHANNEL_RLC_ENTITY_I'
p948
aS'D'
p949
aaa(lp950
S'CRLC_CONFIG_RX_UM_ESTABLISH_REQ'
p951
a(lp952
S'EXTENDED_RADIO_BEARER_ID'
p953
aS'LI_SIZE'
p954
aS'RE-ESTABLISHMENT_FLAG'
p955
aS'TX_HFN'
p956
aS'E_BIT_INTERPRETATION'
p957
aaa(lp958
S'CRLC_CONFIG_TX_AM_ESTABLISH_REQ'
p959
a(lp960
S'EXTENDED_RADIO_BEARER_ID'
p961
aS'USE_TWO_LOGICAL_CHANNELS'
p962
aS'PDU_SIZE'
p963
aS'SIZE_CONTROL_PDUS'
p964
aS'POLL_TRIGGERS'
p965
aS'TX_RLC_DISCARD_MODE'
p966
aS'TIMER_DISCARD'
p967
aS'MAX_DAT'
p968
aS'MAX_MRW'
p969
aS'TIMER_MRW'
p970
aS'TIMER_RST'
p971
aS'TIMER_POLL'
p972
aS'TIMER_POLL_PERIODIC'
p973
aS'TIMER_POLL_PROHIBIT'
p974
aS'TX_WINDOW_SIZE'
p975
aS'MAX_RST'
p976
aS'POLL_SDU'
p977
aS'POLL_PU'
p978
aS'POLL_WINDOW'
p979
aS'RE-ESTABLISHMENT_FLAG'
p980
aS'TX_HFN'
p981
aS'SPECIAL_HE_FIELD'
p982
aaa(lp983
S'CRLC_CONFIG_TX_FLEX_AM_ESTABLISH_REQ'
p984
a(lp985
S'EXTENDED_RADIO_BEARER_ID'
p986
aS'USE_TWO_LOGICAL_CHANNELS'
p987
aS'LI_SIZE'
p988
aS'MIN_UL_RLC_PDU_SIZE'
p989
aS'MAX_UL_RLC_PDU_SIZE'
p990
aS'SIZE_CONTROL_PDUS'
p991
aS'POLL_TRIGGERS'
p992
aS'TX_RLC_DISCARD_MODE'
p993
aS'TIMER_DISCARD'
p994
aS'MAX_DAT'
p995
aS'MAX_MRW'
p996
aS'TIMER_MRW'
p997
aS'TIMER_RST'
p998
aS'TIMER_POLL'
p999
aS'TIMER_POLL_PERIODIC'
p1000
aS'TIMER_POLL_PROHIBIT'
p1001
aS'TX_WINDOW_SIZE'
p1002
aS'MAX_RST'
p1003
aS'POLL_SDU'
p1004
aS'POLL_PU'
p1005
aS'POLL_WINDOW'
p1006
aS'RE-ESTABLISHMENT_FLAG'
p1007
aS'TX_HFN'
p1008
aS'SPECIAL_HE_FIELD'
p1009
aaa(lp1010
S'CRLC_CONFIG_TX_FLEX_UM_ESTABLISH_REQ'
p1011
a(lp1012
S'EXTENDED_RADIO_BEARER_ID'
p1013
aS'LI_SIZE'
p1014
aS'MIN_UL_RLC_PDU_SIZE'
p1015
aS'MAX_UL_RLC_PDU_SIZE'
p1016
aS'TX_RLC_DISCARD_MODE'
p1017
aS'TIMER_DISCARD'
p1018
aS'RE-ESTABLISHMENT_FLAG'
p1019
aS'TX_HFN'
p1020
aS'E_BIT_INTERPRETATION'
p1021
aS'SN_DELIVERY'
p1022
aaa(lp1023
S'CRLC_CONFIG_TX_UM_ESTABLISH_REQ'
p1024
a(lp1025
S'EXTENDED_RADIO_BEARER_ID'
p1026
aS'PDU_SIZE'
p1027
aS'TX_RLC_DISCARD_MODE'
p1028
aS'TIMER_DISCARD'
p1029
aS'LI_SIZE'
p1030
aS'RE-ESTABLISHMENT_FLAG'
p1031
aS'TX_HFN'
p1032
aS'E_BIT_INTERPRETATION'
p1033
aS'SN_DELIVERY'
p1034
aaa(lp1035
S'DelCommonEDCH'
p1036
a(lp1037
S'CPCIH_SCRAMBLING_CODE'
p1038
aS'CPCIH_SPREADING_CODE'
p1039
aaa(lp1040
S'DelDEDLTDI'
p1041
a(lp1042
S'INSTANCE_NUMBER'
p1043
aaa(lp1044
S'DelDEFFE'
p1045
a(lp1046
S'INSTANCE_NUMBER'
p1047
aaa(lp1048
S'DelDEFFG'
p1049
a(lp1050
S'INSTANCE_NUMBER'
p1051
aaa(lp1052
S'DelDELoopback'
p1053
a(lp1054
S'INSTANCE_NUMBER'
p1055
aaa(lp1056
S'DelDEPNE'
p1057
a(lp1058
S'INSTANCE_NUMBER'
p1059
aaa(lp1060
S'DelDEPNG'
p1061
a(lp1062
S'INSTANCE_NUMBER'
p1063
aaa(lp1064
S'DelDEULTDI'
p1065
a(lp1066
S'INSTANCE_NUMBER'
p1067
aaa(lp1068
S'DelDTXDRX'
p1069
a(lp1070
S'TIMING_TYPE'
p1071
aS'COMMAND_TIME'
p1072
aaa(lp1073
S'DelEDCHCell'
p1074
a(lp1075
S'FURTHER_COMMANDS'
p1076
aS'TIMING_TYPE'
p1077
aS'COMMAND_TIME'
p1078
aS'DL_SCRAM_CODE'
p1079
aaa(lp1080
S'DelEmulatedFDDCell'
p1081
a(lp1082
S'CELL_ID'
p1083
aS'UARFCN'
p1084
aaa(lp1085
S'DelEmulatedFDDFrequency'
p1086
a(lp1087
S'UARFCN'
p1088
aaa(lp1089
S'DelEmulatedGSMCell'
p1090
a(lp1091
S'BSIC'
p1092
aS'ARFCN'
p1093
aaa(lp1094
S'DeleteCCB'
p1095
a(lp1096
S'CCB'
p1097
aS'TIMING_TYPE'
p1098
aS'COMMAND_TIME'
p1099
aaa(lp1100
S'DeleteDLPhCH'
p1101
a(lp1102
S'DL_PHCH_INDEX'
p1103
aaa(lp1104
S'DeleteHsScchNonServ'
p1105
a(lp1106
S'TIMING_TYPE'
p1107
aS'COMMAND_TIME'
p1108
aaa(lp1109
S'DeleteLeg'
p1110
a(lp1111
S'LEG_INDEX'
p1112
aS'TIMING_TYPE'
p1113
aS'COMMAND_TIME'
p1114
aaa(lp1115
S'DeleteULPhCH'
p1116
a(lp1117
S'UL_PHCH_INDEX'
p1118
aaa(lp1119
S'DelHsdschPich'
p1120
a(lp1121
S'TIMING_TYPE'
p1122
aS'COMMAND_TIME'
p1123
aaa(lp1124
S'DelHsScchLess'
p1125
a(lp1126
aa(lp1127
S'DERR'
p1128
a(lp1129
aa(lp1130
S'DisableTxOnSyncLoss'
p1131
a(lp1132
S'DISABLE_TX_SYNC_ON_OFF'
p1133
aaa(lp1134
S'DiscardMacHsHeader'
p1135
a(lp1136
S'DISCARD_HEADERS_ON_OFF'
p1137
aaa(lp1138
S'DSTR'
p1139
a(lp1140
aa(lp1141
S'EndEDCH'
p1142
a(lp1143
S'TIMING_TYPE'
p1144
aS'COMMAND_TIME'
p1145
aaa(lp1146
S'EndHSDPA'
p1147
a(lp1148
S'TIMING_TYPE'
p1149
aS'COMMAND_TIME'
p1150
aaa(lp1151
S'EREF'
p1152
a(lp1153
S'RADIO CONTEXT'
p1154
aS'USE REF IN'
p1155
aS'ENABLE REF OUT'
p1156
aaa(lp1157
S'ForceCellContext'
p1158
a(lp1159
S'FORCE_CELL_CONTEXT_MODE'
p1160
aS'CELL_CONTEXT'
p1161
aaa(lp1162
S'ForceDpdchBits'
p1163
a(lp1164
S'FORCE_DPDCH_BITS_ON_OFF'
p1165
aS'DPDCH_SPREADING_FACTOR'
p1166
aS'DPDCH_DATA_PATTERN'
p1167
aS'DATA_GAIN'
p1168
aS'CTRL_GAIN'
p1169
aaa(lp1170
S'ForceEDchBlockErrors'
p1171
a(lp1172
S'FORCED_ERROR_MODE'
p1173
aS'HARQ_PROCESS_NUM'
p1174
aS'MIN_BLK_ERROR'
p1175
aS'RAND_BLK_ERROR'
p1176
aaa(lp1177
S'ForceFbiBits'
p1178
a(lp1179
S'FORCE_FBI_BITS_ON_OFF'
p1180
aS'FBI_BIT_PATTERN'
p1181
aaa(lp1182
S'ForcePilotBits'
p1183
a(lp1184
S'FORCE_PILOT_BITS_ON_ OFF'
p1185
aS'PILOT_BIT_PATTERN'
p1186
aaa(lp1187
S'ForceTFCIBits'
p1188
a(lp1189
S'FORCE_TFCI_BITS_ON_OFF'
p1190
aS'TFCI_BIT_PATTERN'
p1191
aaa(lp1192
S'ForceTPCBits'
p1193
a(lp1194
S'FORCE_TPC_BITS_ON_OFF'
p1195
aS'TPC_BIT_PATTERN'
p1196
aaa(lp1197
S'ForceULBitErrors'
p1198
a(lp1199
S'Channel Type'
p1200
aS'BIT_ERROR_RATE'
p1201
aaa(lp1202
S'ForceULSubSIChipOffset'
p1203
a(lp1204
S'FORCE_N_CHIPS'
p1205
aaa(lp1206
S'FORW'
p1207
a(lp1208
S'COMPONENT_ALIAS'
p1209
aS'COMMAND_STRING'
p1210
aaa(lp1211
S'GCFG'
p1212
a(lp1213
aa(lp1214
S'GetHsdpaEqualizerTaps'
p1215
a(lp1216
aa(lp1217
S'GETP'
p1218
a(lp1219
S'PARAMETER_ALIAS'
p1220
aaa(lp1221
S'GETR'
p1222
a(lp1223
aa(lp1224
S'GetStats'
p1225
a(lp1226
S'CCB'
p1227
aS'not required.'
p1228
aS'SERVICE'
p1229
aS'If this parameter is used, then CCB is not'
p1230
aS'required.'
p1231
aS'SERVICE_INDEX'
p1232
aaa(lp1233
S'GSTS'
p1234
a(lp1235
aa(lp1236
S'GVER'
p1237
a(lp1238
aa(lp1239
S'HELP'
p1240
a(lp1241
aa(lp1242
S'HSCellChangeImitation'
p1243
a(lp1244
S'START_SFN'
p1245
aS'INTERVAL'
p1246
aS'REPETITION_COUNT'
p1247
aaa(lp1248
S'HsdlEDchData'
p1249
a(lp1250
S'EDCH_LOGGING_ON_OFF'
p1251
aS'TRBK_CRC_LOGGING_ON_OFF'
p1252
aS'TURBO_ENCODER_ LOGGING_ON_OFF'
p1253
aS'RATE_MATCH_OUTPUT_LOGGING_ON_OFF'
p1254
aS'E-DPDCH_DATA_LOGGING_ON_OFF'
p1255
aaa(lp1256
S'HSDPAConfig16QAM'
p1257
a(lp1258
S'ALGORITHM'
p1259
aS'N'
p1260
aaa(lp1261
S'HSDPAConfig64QAM'
p1262
a(lp1263
S'ALGORITHM'
p1264
ag1260
aaa(lp1265
S'HsdpaCpichFilter'
p1266
a(lp1267
S'FILTER_LENGTH'
p1268
aaa(lp1269
S'HsdpaCpichSir'
p1270
a(lp1271
S'FORGETTING_FACTOR'
p1272
aS'LOCAL_MEAN_LENGTH'
p1273
aaa(lp1274
S'HsdpaSchCancellation'
p1275
a(lp1276
S'LENGTH'
p1277
aS'START_INDEX'
p1278
aS'ACK_TABLE_ARRAY'
p1279
aaa(lp1280
S'HsDpcchAckTableData'
p1281
a(lp1282
S'LENGTH'
p1283
aS'START_INDEX'
p1284
aS'ACK_TABLE_ARRAY'
p1285
aaa(lp1286
S'HsDpcchCqiTableData'
p1287
a(lp1288
S'LENGTH'
p1289
aS'START_INDEX'
p1290
aS'CQI_TABLE_ARRAY'
p1291
aaa(lp1292
S'HsDpcchPciTableData'
p1293
a(lp1294
S'LENGTH'
p1295
aS'START_INDEX'
p1296
aS'PCI_TABLE_ARRAY'
p1297
aaa(lp1298
S'HsDpcchTestStart'
p1299
a(lp1300
S'TABLE_SIZE'
p1301
aS'SCRIPTED_FEEDBACK_MODE'
p1302
aS'SCRIPTED_HARQ_FEEDBACK_MODE'
p1303
aS'HARQ_TABLE_SIZE'
p1304
aaa(lp1305
S'HsDpcchTestStop'
p1306
a(lp1307
aa(lp1308
S'HsDschBlerClear'
p1309
a(lp1310
aa(lp1311
S'HSDschBlerRead'
p1312
a(lp1313
aa(lp1314
S'HSScchBlerClear'
p1315
a(lp1316
aa(lp1317
S'HsScchBlerRead'
p1318
a(lp1319
aa(lp1320
S'HsScchCrcVersion'
p1321
a(lp1322
S'CR_183_COMPLIANT'
p1323
aaa(lp1324
S'InitCellSearch'
p1325
a(lp1326
aa(lp1327
S'InitEDCHTableSet'
p1328
a(lp1329
S'CYCLE_TABLE_SET_INDEX'
p1330
aaa(lp1331
S'L1SysCap'
p1332
a(lp1333
S'HS-DSCH_CATEGORY'
p1334
aS'E-DCH_CATEGORY'
p1335
aaa(lp1336
S'LCOM'
p1337
a(lp1338
aa(lp1339
S'MAC_CONFIG_TFC_REQ'
p1340
a(lp1341
S'ENABLE_DISABLE_TFC'
p1342
aaa(lp1343
S'MAC_E_CONFIG_AG_REQ'
p1344
a(lp1345
S'ENABLE_DISABLE'
p1346
aS'PRIMARY_E-RNTI'
p1347
aS'SG_VALUE'
p1348
aS'HARQ_BITMAP'
p1349
aaa(lp1350
S'MAC_E_CONFIG_ETFCI_SELECTION_REQ'
p1351
a(lp1352
S'ENABLE_COMPUTED_E-TFCI'
p1353
aS'OVERRIDE_ETFCI_VALUE'
p1354
aaa(lp1355
S'MAC_E_CONFIG_HAPPYBIT_REQ'
p1356
a(lp1357
S'ENABLE_DISABLE'
p1358
aS'HAPPY_BIT_STATE'
p1359
aaa(lp1360
S'MAC_E_CONFIG_HICH_REQ'
p1361
a(lp1362
S'ENABLE_DISABLE'
p1363
aaa(lp1364
S'MAC_E_CONFIG_RG_REQ'
p1365
a(lp1366
S'ENABLE_DISABLE'
p1367
aS'RG_ONESHOT'
p1368
aS'SG_TABLE_INDEX'
p1369
aaa(lp1370
S'MeasCtrl'
p1371
a(lp1372
S'MEAS_CTRL'
p1373
aS'TIMING_TYPE'
p1374
aS'TGPS_DEACTIVATION_TIME_LIST'
p1375
aS'TGPS_ACTIVATION_TIME_LIST'
p1376
aaa(lp1377
S'ModifyEDCH'
p1378
a(lp1379
S'FURTHER_COMMANDS'
p1380
aS'CYCLE_TABLE_SET_INDEX'
p1381
aS'TMI'
p1382
aS'TIMING_TYPE'
p1383
aS'COMMAND_TIME'
p1384
aS'DL_SCRAM_CODE'
p1385
aS'PRIMARY E-RNTI'
p1386
aS'SECONDARY E-RNTI'
p1387
aS'TTI_TIME_INTERVAL'
p1388
aS'RV_CONFIGURATION'
p1389
aS'E-DPCCH_DPCCH_POWER_OFFSET'
p1390
aS'E-DPDCH_MAX_CHANNELISATION_CODE'
p1391
aS'E-DPDCH_PUNCTURING_LIMIT'
p1392
aS'E-AGCH_CHANNELISATION_CODE'
p1393
aS'E-HICH_CHANNELISATION_CODE'
p1394
aS'E-HICH_SIGNATURE'
p1395
aS'E-RGCH_CONFIG'
p1396
aS'E-RGCH_SIGNATURE'
p1397
aS'RG_COMBINATION_INDEX'
p1398
aS'E-RGCH_STEPSIZE'
p1399
aS'E-TFCI boost'
p1400
aS'\xef\x81\x84T2TP'
p1401
aS'SG_TABLE_INDEX'
p1402
aS'MIN_REDUCED_EDPDCH_GAIN'
p1403
aaa(lp1404
S'ModifyHSDPA'
p1405
a(lp1406
S'TMI'
p1407
aS'TIMING_TYPE'
p1408
aS'COMMAND_TIME'
p1409
aS'DATA_PORT'
p1410
aS'DL_SCRAM_CODE'
p1411
aS'H_RNTI'
p1412
aS'NUM_HS-SCCH'
p1413
aS'HS-SCCH_SPREAD_CODE_INDEX'
p1414
aS'HS-PDSCH_CPICH_POWER_OFFSET'
p1415
aS'CQI_FEEDBACK_CYCLE'
p1416
aS'CQI_REPETITION_FACTOR'
p1417
aS'POWER_OFFSET_QUANTIZATION_CQI'
p1418
aS'POWER_OFFSET_QUANTIZATION_ACK'
p1419
aS'POWER_OFFSET_QUANTIZATION_NACK'
p1420
aS'ACK_NACK_REPETITION_FACTOR'
p1421
aS'NUM_HARQ_PROCS'
p1422
aS'MEM_PARTITION'
p1423
aS'PROC_MEM_SIZE_LIST'
p1424
aS'MAC-HS_RESET'
p1425
aS'MIMO_64QAM_ENABLE'
p1426
aS'N_CQI_A_OVER_M_CQI'
p1427
aS'ANTENNA2_PHASE_REF'
p1428
aS'SPREADING_CODE_INDEX'
p1429
aS'TRANSPORT_BLOCK_SIZE_TABLE'
p1430
aS'HSSCCH_ORDER_TIMED'
p1431
aS'SUPPORT_VARYING_HSSCCH'
p1432
aaa(lp1433
S'NBRABM_ACTIVATE_REQ'
p1434
a(lp1435
S'NUM_CONTEXTS'
p1436
aS'>NSAPI'
p1437
aS'>TRAFFIC_CLASS'
p1438
aS'>ERROR_SDU_DELIVERY'
p1439
aS'>SEND_SEQUENCE_NUM'
p1440
aS'>RCV_SEQUENCE_NUM'
p1441
aaa(lp1442
S'NBRABM_DEACTIVATE_REQ'
p1443
a(lp1444
S'NUM_CONTEXTS'
p1445
aS'>NSAPI'
p1446
aaa(lp1447
S'PhyIndicationCfnTimingMode'
p1448
a(lp1449
S'CFN_TIMING_MODE'
p1450
aaa(lp1451
S'PrachTest'
p1452
a(lp1453
S'AICH_MODE'
p1454
aS'FORCE_PREAMBLE_ ACCESS_SLOT'
p1455
aS'ACCESS_SLOT'
p1456
aS'FORCE_SUBCHANNEL'
p1457
aS'SUBCHANNEL'
p1458
aS'FORCE_AICH_PREAMBLE_SIGNATURE'
p1459
aS'AICH_PREAMBLE_ SIGNATURE'
p1460
aaa(lp1461
S'PRIR'
p1462
a(lp1463
S'RADIO CONTEXT'
p1464
aS'CHASSIS'
p1465
aS'PRIMARY RADIO CARD NUMBER'
p1466
aaa(lp1467
S'R99CpichFilter'
p1468
a(lp1469
S'FILTER_LENGTH'
p1470
aaa(lp1471
S'RachTxReq'
p1472
a(lp1473
S'CCB'
p1474
aS'ASC'
p1475
aaa(lp1476
S'RBOT'
p1477
a(lp1478
aa(lp1479
S'ReqMonResult'
p1480
a(lp1481
aa(lp1482
S'Reset'
p1483
a(lp1484
aa(lp1485
S'ResetSIRCQIMapping'
p1486
a(lp1487
S'CQI_MAPPING_TABLE'
p1488
aaa(lp1489
S'RetestCellSTTD'
p1490
a(lp1491
aa(lp1492
S'RRCSetRfFrequency'
p1493
a(lp1494
S'REBOOT_ON_ERROR'
p1495
aS'REBOOT_ON_MCI_DISCONNECT'
p1496
aS'MCI_TICK_INDICATION'
p1497
aaa(lp1498
S'RSET'
p1499
a(lp1500
aa(lp1501
S'SCFG'
p1502
a(lp1503
S'MODE_ALIAS'
p1504
aaa(lp1505
S'SelectDLPhCH'
p1506
a(lp1507
S'DL_PHCH_INDEX'
p1508
aS'TIMING_TYPE'
p1509
aS'COMMAND_TIME'
p1510
aaa(lp1511
S'SelectULPhCH'
p1512
a(lp1513
S'UL_PHCH_INDEX'
p1514
aS'TIMING_TYPE'
p1515
aS'COMMAND_TIME'
p1516
aaa(lp1517
S'SELR'
p1518
a(lp1519
S'RADIO CONTEXT'
p1520
aS'CHASSIS'
p1521
aS'RADIO CARD NUMBER'
p1522
aS'INTERFACE MODE'
p1523
aaa(lp1524
S'SendCfnTimeIndication'
p1525
a(lp1526
S'CFN'
p1527
aS'SERVICE'
p1528
aaa(lp1529
S'SendSfnTimeIndication'
p1530
a(lp1531
S'SFN'
p1532
aS'CELL_SCRAMBLING_CODE'
p1533
aaa(lp1534
S'Set Band and Carrier Combinations'
p1535
a(lp1536
S'REBOOT_ON_ERROR'
p1537
aS'REBOOT_ON_MCI_DISCONNECT'
p1538
aS'MCI_TICK_INDICATION'
p1539
aaa(lp1540
S'Set Band Combinations'
p1541
a(lp1542
S'REBOOT_ON_ERROR'
p1543
aS'REBOOT_ON_MCI_DISCONNECT'
p1544
aS'MCI_TICK_INDICATION'
p1545
aaa(lp1546
S'SetAgYiThreshold'
p1547
a(lp1548
S'AG_YI_THRESHOLD'
p1549
aaa(lp1550
S'SETC'
p1551
a(lp1552
S'Carrier Number'
p1553
aS'CHASSIS'
p1554
aS'Define the chassis'
p1555
aS'RADIO CARD'
p1556
aS'NUMBER'
p1557
aS'Number of connections'
p1558
aaa(lp1559
S'SetCarrierFrequency'
p1560
a(lp1561
S'Carrier Number'
p1562
aS'Downlink Frequency'
p1563
aS'Uplink Frequency'
p1564
aaa(lp1565
S'SetCellContext'
p1566
a(lp1567
S'Serving Cell Type'
p1568
aS'Carrier Number'
p1569
aaa(lp1570
S'SetCellPathDelay'
p1571
a(lp1572
S'CELL_PATH_DELAY'
p1573
aaa(lp1574
S'SetCellRetentionSize'
p1575
a(lp1576
S'QUEUE_SIZE'
p1577
aaa(lp1578
S'SetExtRef'
p1579
a(lp1580
S'FREQUENCY_CORRECTION'
p1581
aS'AFC_BYPASS'
p1582
aaa(lp1583
S'SetFrequencyCorrection'
p1584
a(lp1585
S'FREQUENCY_CORRECTION'
p1586
aS'AFC_BYPASS'
p1587
aaa(lp1588
S'SetHiDecodeThreshold'
p1589
a(lp1590
S'TRANSMIT_POWER_RATIO'
p1591
aaa(lp1592
S'SetHiRgDecodeMode'
p1593
a(lp1594
S'DECODE_MODE'
p1595
aS'E-HICH_POWER_RATIO'
p1596
aS'E-RGCH_POWER_RATIO'
p1597
aaa(lp1598
S'SetHsdpaEqualizerTaps'
p1599
a(lp1600
S'TAP_WEIGHT_MODE'
p1601
aS'TAPS_F11_REAL_ARRAY'
p1602
aS'TAPS_F11_IMAG_ARRAY'
p1603
aS'TAPS_F12_REAL_ARRAY'
p1604
aS'TAPS_F12_IMAG_ARRAY'
p1605
aS'TAPS_F21_REAL_ARRAY'
p1606
aS'TAPS_F21_IMAG_ARRAY'
p1607
aS'TAPS_F22_REAL_ARRAY'
p1608
aS'TAPS_F22_IMAG_ARRAY'
p1609
aaa(lp1610
S'SetHsDschCategory'
p1611
a(lp1612
S'HS-DSCH_CATEGORY'
p1613
aaa(lp1614
S'SetHsDschParameters'
p1615
a(lp1616
S'MAX_HS-DSCH_CODES'
p1617
aS'MIN_INTER-TTI_INTERVAL'
p1618
aS'MAX_HS-DSCH_ BLOCK_SIZE'
p1619
aS'SOFT_CHANNEL_BITS'
p1620
aS'MODULATION_SUPPORT'
p1621
aS'MIMO_SUPPORTED'
p1622
aS'MIMO_MAX_HS-DSCH_ BLOCK_SIZE'
p1623
aS'MIMO_SOFT_CHANNEL_BITS'
p1624
aS'MIMO_MODULATION_SUPPORT'
p1625
aaa(lp1626
S'SetHsScchOrder'
p1627
a(lp1628
S'ORDER_TYPE'
p1629
aS'X_ORDER_1'
p1630
aS'X_ORDER_2'
p1631
aS'X_ORDER_3'
p1632
aS'Order Type'
p1633
aS'xodt,1, xodt,2, xodt,3 xord,1       xord,2'
p1634
aS'cell'
p1635
aS'001'
p1636
aS'0'
p1637
ag1637
ag1637
aS'1'
p1638
ag1638
ag1638
ag1638
aS'010'
p1639
ag1637
ag1637
ag1637
ag1638
ag1638
ag1638
ag1638
aaa(lp1640
S'SetMeasReportingEvent'
p1641
a(lp1642
S'MEAS_ID'
p1643
aS'FILTER_COEFFICIENT'
p1644
aS'SWITCH_ON_OFF_EVENT_6A'
p1645
aS'TX_POWER_THRESHOLD_EVENT_6A'
p1646
aS'TTT_EVENT_6A'
p1647
aS'SWITCH_ON_OFF_EVENT_6B'
p1648
aS'TX_POWER_THRESHOLD_EVENT_6B'
p1649
aS'TTT_EVENT_6B'
p1650
aS'SWITCH_ON_OFF_EVENT_6C'
p1651
aS'TX_POWER_THRESHOLD_EVENT_6C'
p1652
aS'TTT_EVENT_6C'
p1653
aS'SWITCH_ON_OFF_EVENT_6D'
p1654
aS'TX_POWER_THRESHOLD_EVENT_6D'
p1655
aS'TTT_EVENT_6D'
p1656
aaa(lp1657
S'SetMeasureFrequencyErrorMode'
p1658
a(lp1659
S'MEASURE_FREQ_ERROR_MODE'
p1660
aS'FREQ_MEASUREMENTS_ TO_AVERAGE'
p1661
aaa(lp1662
S'SetModemReportPeriod'
p1663
a(lp1664
S'MEASUREMENT_REPORTING_PERIOD'
p1665
aaa(lp1666
S'SetOuterLoopPowerControl'
p1667
a(lp1668
S'ALGORITHM_ON_OFF'
p1669
aS'CONTROL_STEP'
p1670
aS'INITIAL_TARGET_SIR'
p1671
aS'MAX_AV_BLER'
p1672
aS'MIN_AV_BLER'
p1673
aS'NUM_TRCH'
p1674
aS'> TRCH_ID'
p1675
aS'>TARGET_BLER'
p1676
aS'INPUT_BLER'
p1677
aS'CONTROL_STEP'
p1678
aS'INITIAL_TARGET_SIR'
p1679
aaa(lp1680
S'SETP'
p1681
a(lp1682
S'PARAMETER_ALIAS'
p1683
aS'PARAMETER_VALUE'
p1684
aaa(lp1685
S'SetPowerBalance'
p1686
a(lp1687
S'Int'
p1688
aaa(lp1689
S'SetRFChans'
p1690
a(lp1691
S'SERV_CELL_RECEIVE_CHANNEL'
p1692
aS'TRANSMIT_CHANNEL'
p1693
aaa(lp1694
S'SetRFFreqs'
p1695
a(lp1696
S'DL Centre Frequency'
p1697
aS'UL Centre Frequency'
p1698
aaa(lp1699
S'SetRFRxGain'
p1700
a(lp1701
S'AGC_OVERRIDE_ON_OFF'
p1702
aS'RX_GAIN'
p1703
aS'AGC_SET_POINT'
p1704
aS'AGC_AVERAGING_PERIOD'
p1705
aaa(lp1706
S'SetRgDecodeThreshold'
p1707
a(lp1708
S'TRANSMIT_POWER_RATIO'
p1709
aaa(lp1710
S'SetRxIfOffset'
p1711
a(lp1712
S'RX_IF_OFFSET_100KHZ'
p1713
aaa(lp1714
S'SetSearcherMeasurement'
p1715
a(lp1716
S'MEASUREMENT_REPORTING_PERIOD'
p1717
aS'REPORT_INTRA_DETECTED_SET'
p1718
aS'NUM_INTRA_CELLS'
p1719
aS'> CELL_MEAS_ID'
p1720
aS'> PCCPCH_FRAME_TIMING'
p1721
aS'> CELL_ID'
p1722
aS'REPORT_INTER_DETECTED_SET'
p1723
aS'NUM_INTER_CELLS'
p1724
aS'> CELL_MEAS_ID'
p1725
aS'> PCCPCH_FRAME_TIMING'
p1726
aS'> CELL_ID'
p1727
aS'> DL_UARFCN'
p1728
aaa(lp1729
S'SetSearcherReportPeriod'
p1730
a(lp1731
S'MEASUREMENT_REPORTING_PERIOD'
p1732
aaa(lp1733
S'SetSIROffset'
p1734
a(lp1735
S'SIR_OFFSET'
p1736
aaa(lp1737
S'SetTxDiversityReceiverMode'
p1738
a(lp1739
S'TX_DIVERSITY_RECEIVER_MODE'
p1740
aaa(lp1741
S'SetTxPower'
p1742
a(lp1743
S'TX_POWER'
p1744
aaa(lp1745
S'SetupCommonDrx'
p1746
a(lp1747
S'TIMING_TYPE'
p1748
aS'COMMAND_TIME'
p1749
aS'Cycle Length'
p1750
aS'Burst Length'
p1751
aS'Inactivity Period'
p1752
aS'E_DCH support'
p1753
aS'HsDsch Interruption'
p1754
aaa(lp1755
S'SetupCommonEDCH'
p1756
a(lp1757
S'DL Centre Frequency'
p1758
aS'UL Centre Frequency'
p1759
aaa(lp1760
S'SetupEDCH'
p1761
a(lp1762
S'FURTHER_COMMANDS'
p1763
aS'CYCLE_TABLE_SET_INDEX'
p1764
aS'TMI'
p1765
aS'TIMING_TYPE'
p1766
aS'COMMAND_TIME'
p1767
aS'DL_SCRAM_CODE'
p1768
aS'PRIMARY E-RNTI'
p1769
aS'SECONDARY E-RNTI'
p1770
aS'TTI_TIME_INTERVAL'
p1771
aS'RV_CONFIGURATION'
p1772
aS'E-DPCCH_DPCCH_POWER_OFFSET'
p1773
aS'E-DPDCH_MAX_CHANNELISATION_CODE'
p1774
aS'E-DPDCH_PUNCTURING_LIMIT'
p1775
aS'E-AGCH_CHANNELISATION_CODE'
p1776
aS'E-HICH_CHANNELISATION_CODE'
p1777
aS'E-HICH_SIGNATURE'
p1778
aS'E-RGCH_CONFIG'
p1779
aS'E-RGCH_SIGNATURE'
p1780
aS'RG_COMBINATION_INDEX'
p1781
aS'E-RGCH_STEPSIZE'
p1782
aS'E-TFCI boost'
p1783
aS'\xef\x81\x84T2TP'
p1784
aS'SG_TABLE_INDEX'
p1785
aS'MIN_REDUCED_EDPDCH_GAIN'
p1786
aaa(lp1787
S'SetupHsCellCpich'
p1788
a(lp1789
S'CPCIH_SCRAMBLING_CODE'
p1790
aS'CPCIH_SPREADING_CODE'
p1791
aaa(lp1792
S'SetupHSDPA'
p1793
a(lp1794
S'TMI'
p1795
aS'TIMING_TYPE'
p1796
aS'COMMAND_TIME'
p1797
aS'DATA_PORT'
p1798
aS'DL_SCRAM_CODE'
p1799
aS'H_RNTI'
p1800
aS'NUM_HS-SCCH'
p1801
aS'HS-SCCH_SPREAD_CODE_INDEX'
p1802
aS'HS-PDSCH_CPICH_POWER_OFFSET'
p1803
aS'CQI_FEEDBACK_CYCLE'
p1804
aS'CQI_REPETITION_FACTOR'
p1805
aS'POWER_OFFSET_QUANTIZATION_CQI'
p1806
aS'POWER_OFFSET_QUANTIZATION_ACK'
p1807
aS'POWER_OFFSET_QUANTIZATION_NACK'
p1808
aS'ACK_NACK_REPETITION_FACTOR'
p1809
aS'NUM_HARQ_PROCS'
p1810
aS'MEM_PARTITION'
p1811
aS'PROC_MEM_SIZE_LIST'
p1812
aS'MIMO_64QAM_ENABLE'
p1813
aS'N_CQI_A_OVER_M_CQI'
p1814
aS'ANTENNA2_PHASE_REF'
p1815
aS'SPREADING_CODE_INDEX'
p1816
aS'TRANSPORT_BLOCK_SIZE_TABLE'
p1817
aS'SUPPORT_VARYING_HSSCCH'
p1818
aaa(lp1819
S'SetupHsScchNonServ'
p1820
a(lp1821
S'TIMING_TYPE'
p1822
aS'COMMAND_TIME'
p1823
aS'DL_SCRAM_CODE'
p1824
aS'H_RNTI'
p1825
aS'HS-SCCH_SPREAD_CODE_INDEX'
p1826
aS'MIMO_64QAM_ENABLE'
p1827
aaa(lp1828
S'ShowTFCStatus'
p1829
a(lp1830
aa(lp1831
S'TGPSStatusIndication'
p1832
a(lp1833
S'CONTROL'
p1834
aaa(lp1835
S'UEDetectionAlgorithm'
p1836
a(lp1837
S'UE_DETECTION_ALGORITHM'
p1838
aS'THRESHOLD_VPMD'
p1839
aS'THRESHOLD_YI'
p1840
aS'NUMBER_OF_YI_STAGES'
p1841
aaa(lp1842
S'UplinksEnable'
p1843
a(lp1844
S'HS-DPCCH UL ENABLE'
p1845
aS'DPDCH UL ENABLE'
p1846
aS'DPCCH UL ENABLE'
p1847
aS'E-DPDCH UL ENABLE'
p1848
aS'E-DPCCH UL ENABLE'
p1849
aS'SECONDARY DPCCH UL'
p1850
aS'ENABLE'
p1851
aS'SECONDARY E-DPDCH UL'
p1852
aS'ENABLE'
p1853
aS'SECONDARY E-DPCCH UL'
p1854
aS'ENABLE'
p1855
aaa(lp1856
S'USERPTE ADD DATA_PROFILE'
p1857
a(lp1858
S'RAB_ID'
p1859
aS'PN_SEQUENCE'
p1860
aS'SYNC_START_SDU'
p1861
aS'USER_BYTE'
p1862
aaa(lp1863
S'USERPTE ADD DATA_PROFILE_ENTRY'
p1864
a(lp1865
S'RAB_ID'
p1866
aS'NUM_SDUs'
p1867
aS'SDU_SIZE'
p1868
aS'TIME_TO_WAIT'
p1869
aaa(lp1870
S'USERPTE ADD PATTERNEVAL'
p1871
a(lp1872
S'PN_SEQUENCE'
p1873
aS'USER_BYTE'
p1874
aS'RAB_ID'
p1875
aS'SYNC _START_SDU'
p1876
aS'RESYNC_ON_SYNC_LOSS'
p1877
aS'BITS_TO_SKIP'
p1878
aaa(lp1879
S'USERPTE ADD RAB'
p1880
a(lp1881
S'RAB ID'
p1882
aS'MODE'
p1883
aS'PORT NUMBER'
p1884
aS'SDU_SIZE'
p1885
aS'MAX_SDU'
p1886
aaa(lp1887
S'USERPTE ADD ROUTE'
p1888
a(lp1889
S'DESTINATION_IP'
p1890
aS'SUBNET_MASK'
p1891
aS'RADIO_BEARER_ID'
p1892
aS'RAB_ID'
p1893
aS'INVERSE'
p1894
aaa(lp1895
S'USERPTE ADD SOURCE'
p1896
a(lp1897
S'SOURCE_IP'
p1898
aS'RADIO_BEARER_ID'
p1899
aS'RAB ID'
p1900
aaa(lp1901
S'USERPTE ADD TESTPATTERN'
p1902
a(lp1903
S'PN_SEQUENCE'
p1904
aS'USER_BYTE'
p1905
aS'RAB_ID'
p1906
aS'SYNC_START_SDU'
p1907
aS'DATA_UNIT_SIZE'
p1908
aS'NUM_ DATA_UNITS'
p1909
aS'DATA_UNIT_INTERVAL'
p1910
aS'REPETITION_PERIOD'
p1911
aS'RAB_ID'
p1912
aaa(lp1913
S'USERPTE DEVICE_INIT'
p1914
a(lp1915
aa(lp1916
S'USERPTE FLOW_CONTROL'
p1917
a(lp1918
S'RAB_ID'
p1919
aaa(lp1920
S'USERPTE RMV'
p1921
a(lp1922
S'RAB_ID'
p1923
aS'BER'
p1924
aaa(lp1925
S'USERPTE SHOWBER'
p1926
a(lp1927
S'RAB_ID'
p1928
aS'BER'
p1929
aaa(lp1930
S'USERPTE START_DATA_PROFILE'
p1931
a(lp1932
S'RAB_ID'
p1933
aaa(lp1934
S'USERPTE STOP_DATA_PROFILE'
p1935
a(lp1936
S'RAB_ID'
p1937
aaa(lp1938
S'UTEST_ACTIVATE_LOOP_REQ'
p1939
a(lp1940
aa(lp1941
S'UTEST_CLOSE_LOOP_M1_REQ'
p1942
a(lp1943
S'NUM_RB'
p1944
aS'> RB_ID'
p1945
aS'> SDU Size'
p1946
aaa(lp1947
S'UTEST_DEACTIVATE_LOOP_REQ'
p1948
a(lp1949
aa(lp1950
S'UTEST_OPEN_LOOP_REQ'
p1951
a(lp1952
aatp1953
Rp1954
.